#include <math.h>
#include <stdio.h>
#include <stdlib.h>
#include <string.h>

int main()
{
	int i,j,k;
	int m;
	int n[1000];
    double sum=3.500;
	double a=3,b=5,t;
	scanf("%d",&m);
	for(i=0;i<m;i++)
	{
		scanf("%d",&n[i]);
	}
	for(j=0;j<m;j++)
	{
		if(n[j]==1)
		{
			printf("2.000\n");
		}
		if(n[j]==2)
		{
			printf("3.500\n");
		}
		if(n[j]>2)
		{
			for(k=3;k<=n[j];k++)
			{
				sum+=b/a;
				t=a;
				a=b;
				b=t+b;
			}
			printf("%.3lf\n",sum);
		}
		sum=3.500;
		a=3,b=5;
	}
	return 0;
}
				

				

		
		