; ModuleID = 'source-C-CXX/28/702.c'
source_filename = "source-C-CXX/28/702.c"
target datalayout = "e-m:e-p270:32:32-p271:32:32-p272:64:64-i64:64-f80:128-n8:16:32:64-S128"
target triple = "x86_64-pc-linux-gnu"

@.str = private unnamed_addr constant [3 x i8] c"%d\00", align 1
@.str.3 = private unnamed_addr constant [7 x i8] c"%.3lf\0A\00", align 1
@str = private unnamed_addr constant [6 x i8] c"3.500\00", align 1
@str.4 = private unnamed_addr constant [6 x i8] c"2.000\00", align 1

; Function Attrs: nofree nounwind sspstrong uwtable
define dso_local i32 @main() local_unnamed_addr #0 {
  %1 = alloca i32, align 4
  %2 = alloca [1000 x i32], align 16
  %3 = bitcast i32* %1 to i8*
  call void @llvm.lifetime.start.p0i8(i64 4, i8* nonnull %3) #4
  %4 = bitcast [1000 x i32]* %2 to i8*
  call void @llvm.lifetime.start.p0i8(i64 4000, i8* nonnull %4) #4
  %5 = call i32 (i8*, ...) @__isoc99_scanf(i8* getelementptr inbounds ([3 x i8], [3 x i8]* @.str, i64 0, i64 0), i32* nonnull %1)
  %6 = load i32, i32* %1, align 4, !tbaa !5
  %7 = icmp sgt i32 %6, 0
  br i1 %7, label %10, label %71

8:                                                ; preds = %10
  %9 = icmp sgt i32 %15, 0
  br i1 %9, label %18, label %71

10:                                               ; preds = %0, %10
  %11 = phi i64 [ %14, %10 ], [ 0, %0 ]
  %12 = getelementptr inbounds [1000 x i32], [1000 x i32]* %2, i64 0, i64 %11
  %13 = call i32 (i8*, ...) @__isoc99_scanf(i8* getelementptr inbounds ([3 x i8], [3 x i8]* @.str, i64 0, i64 0), i32* nonnull %12)
  %14 = add nuw nsw i64 %11, 1
  %15 = load i32, i32* %1, align 4, !tbaa !5
  %16 = sext i32 %15 to i64
  %17 = icmp slt i64 %14, %16
  br i1 %17, label %10, label %8, !llvm.loop !9

18:                                               ; preds = %8, %66
  %19 = phi i64 [ %67, %66 ], [ 0, %8 ]
  %20 = getelementptr inbounds [1000 x i32], [1000 x i32]* %2, i64 0, i64 %19
  %21 = load i32, i32* %20, align 4, !tbaa !5
  %22 = icmp eq i32 %21, 1
  br i1 %22, label %23, label %26

23:                                               ; preds = %18
  %24 = call i32 @puts(i8* nonnull dereferenceable(1) getelementptr inbounds ([6 x i8], [6 x i8]* @str.4, i64 0, i64 0))
  %25 = load i32, i32* %20, align 4, !tbaa !5
  br label %26

26:                                               ; preds = %23, %18
  %27 = phi i32 [ %25, %23 ], [ %21, %18 ]
  %28 = icmp eq i32 %27, 2
  br i1 %28, label %29, label %32

29:                                               ; preds = %26
  %30 = call i32 @puts(i8* nonnull dereferenceable(1) getelementptr inbounds ([6 x i8], [6 x i8]* @str, i64 0, i64 0))
  %31 = load i32, i32* %20, align 4, !tbaa !5
  br label %32

32:                                               ; preds = %29, %26
  %33 = phi i32 [ %31, %29 ], [ %27, %26 ]
  %34 = icmp sgt i32 %33, 2
  br i1 %34, label %35, label %66

35:                                               ; preds = %32
  %36 = and i32 %33, 1
  %37 = icmp eq i32 %33, 3
  br i1 %37, label %54, label %38

38:                                               ; preds = %35
  %39 = add i32 %33, -2
  %40 = and i32 %39, -2
  br label %41

41:                                               ; preds = %41, %38
  %42 = phi double [ 5.000000e+00, %38 ], [ %51, %41 ]
  %43 = phi double [ 3.000000e+00, %38 ], [ %48, %41 ]
  %44 = phi double [ 3.500000e+00, %38 ], [ %50, %41 ]
  %45 = phi i32 [ %40, %38 ], [ %52, %41 ]
  %46 = fdiv double %42, %43
  %47 = fadd double %44, %46
  %48 = fadd double %43, %42
  %49 = fdiv double %48, %42
  %50 = fadd double %47, %49
  %51 = fadd double %42, %48
  %52 = add i32 %45, -2
  %53 = icmp eq i32 %52, 0
  br i1 %53, label %54, label %41, !llvm.loop !11

54:                                               ; preds = %41, %35
  %55 = phi double [ undef, %35 ], [ %50, %41 ]
  %56 = phi double [ 5.000000e+00, %35 ], [ %51, %41 ]
  %57 = phi double [ 3.000000e+00, %35 ], [ %48, %41 ]
  %58 = phi double [ 3.500000e+00, %35 ], [ %50, %41 ]
  %59 = icmp eq i32 %36, 0
  br i1 %59, label %63, label %60

60:                                               ; preds = %54
  %61 = fdiv double %56, %57
  %62 = fadd double %58, %61
  br label %63

63:                                               ; preds = %54, %60
  %64 = phi double [ %55, %54 ], [ %62, %60 ]
  %65 = call i32 (i8*, ...) @printf(i8* nonnull dereferenceable(1) getelementptr inbounds ([7 x i8], [7 x i8]* @.str.3, i64 0, i64 0), double %64)
  br label %66

66:                                               ; preds = %63, %32
  %67 = add nuw nsw i64 %19, 1
  %68 = load i32, i32* %1, align 4, !tbaa !5
  %69 = sext i32 %68 to i64
  %70 = icmp slt i64 %67, %69
  br i1 %70, label %18, label %71, !llvm.loop !12

71:                                               ; preds = %66, %0, %8
  call void @llvm.lifetime.end.p0i8(i64 4000, i8* nonnull %4) #4
  call void @llvm.lifetime.end.p0i8(i64 4, i8* nonnull %3) #4
  ret i32 0
}

; Function Attrs: argmemonly mustprogress nofree nosync nounwind willreturn
declare void @llvm.lifetime.start.p0i8(i64 immarg, i8* nocapture) #1

; Function Attrs: nofree nounwind
declare noundef i32 @__isoc99_scanf(i8* nocapture noundef readonly, ...) local_unnamed_addr #2

; Function Attrs: nofree nounwind
declare noundef i32 @printf(i8* nocapture noundef readonly, ...) local_unnamed_addr #2

; Function Attrs: argmemonly mustprogress nofree nosync nounwind willreturn
declare void @llvm.lifetime.end.p0i8(i64 immarg, i8* nocapture) #1

; Function Attrs: nofree nounwind
declare noundef i32 @puts(i8* nocapture noundef readonly) local_unnamed_addr #3


!llvm.module.flags = !{!0, !1, !2, !3}
!llvm.ident = !{!4}

!0 = !{i32 1, !"wchar_size", i32 4}
!1 = !{i32 7, !"PIC Level", i32 2}
!2 = !{i32 7, !"PIE Level", i32 2}
!3 = !{i32 7, !"uwtable", i32 1}
!4 = !{!"clang version 13.0.0"}
!5 = !{!6, !6, i64 0}
!6 = !{!"int", !7, i64 0}
!7 = !{!"omnipotent char", !8, i64 0}
!8 = !{!"Simple C/C++ TBAA"}
!9 = distinct !{!9, !10}
!10 = !{!"llvm.loop.mustprogress"}
!11 = distinct !{!11, !10}
!12 = distinct !{!12, !10}
